; Function Attrs: mustprogress nounwind uwtable
define internal void @_ZN12_GLOBAL__N_112OnDiskBuffer6commitEv(ptr dead_on_unwind noalias writable sret(%"class.llvm::Error") align 8 %0, ptr noundef nonnull align 8 dereferenceable(112) %1) unnamed_addr #0 align 2 {
  %3 = alloca %"class.llvm::sys::fs::mapped_file_region", align 8
  %4 = alloca %"class.llvm::Twine", align 8
  %5 = tail call noundef ptr @_ZN4llvm28getTimeTraceProfilerInstanceEv() #15
  %.not.i = icmp eq ptr %5, null
  br i1 %.not.i, label %_ZN4llvm14TimeTraceScopeC2ENS_9StringRefE.exit, label %6

6:                                                ; preds = %2
  %7 = tail call noundef ptr @_ZN4llvm22timeTraceProfilerBeginENS_9StringRefES0_(ptr nonnull @.str.4, i64 21, ptr nonnull @.str.5, i64 0) #15
  br label %_ZN4llvm14TimeTraceScopeC2ENS_9StringRefE.exit

_ZN4llvm14TimeTraceScopeC2ENS_9StringRefE.exit:   ; preds = %2, %6
  %.sroa.02.0 = phi ptr [ null, %2 ], [ %7, %6 ]
  %8 = getelementptr inbounds nuw i8, ptr %1, i64 40
  call void @llvm.lifetime.start.p0(i64 24, ptr nonnull %3)
  tail call void @_ZN4llvm3sys2fs18mapped_file_region9unmapImplEv(ptr noundef nonnull align 8 dereferenceable(20) %8) #15
  call void @llvm.memset.p0.i64(ptr noundef nonnull align 8 dereferenceable(24) %3, i8 0, i64 24, i1 false)
  tail call void @llvm.memset.p0.i64(ptr noundef nonnull align 8 dereferenceable(20) %8, i8 0, i64 20, i1 false)
  call void @_ZN4llvm3sys2fs18mapped_file_region9unmapImplEv(ptr noundef nonnull align 8 dereferenceable(20) %3) #15
  call void @llvm.lifetime.end.p0(i64 24, ptr nonnull %3)
  %9 = getelementptr inbounds nuw i8, ptr %1, i64 64
  %10 = getelementptr inbounds nuw i8, ptr %1, i64 8
  %11 = getelementptr inbounds nuw i8, ptr %4, i64 32
  store i8 4, ptr %11, align 8
  %12 = getelementptr inbounds nuw i8, ptr %4, i64 33
  store i8 1, ptr %12, align 1
  store ptr %10, ptr %4, align 8
  call void @_ZN4llvm3sys2fs8TempFile4keepERKNS_5TwineE(ptr dead_on_unwind writable sret(%"class.llvm::Error") align 8 %0, ptr noundef nonnull align 8 dereferenceable(44) %9, ptr noundef nonnull align 8 dereferenceable(34) %4) #15
  %13 = call noundef ptr @_ZN4llvm28getTimeTraceProfilerInstanceEv() #15
  %.not.i1 = icmp eq ptr %13, null
  br i1 %.not.i1, label %_ZN4llvm14TimeTraceScopeD2Ev.exit, label %14

14:                                               ; preds = %_ZN4llvm14TimeTraceScopeC2ENS_9StringRefE.exit
  call void @_ZN4llvm20timeTraceProfilerEndEPNS_22TimeTraceProfilerEntryE(ptr noundef %.sroa.02.0) #15
  br label %_ZN4llvm14TimeTraceScopeD2Ev.exit

_ZN4llvm14TimeTraceScopeD2Ev.exit:                ; preds = %_ZN4llvm14TimeTraceScopeC2ENS_9StringRefE.exit, %14
  ret void
}